; ModuleID = '31/1505.c'
source_filename = "31/1505.c"
target datalayout = "e-m:e-p270:32:32-p271:32:32-p272:64:64-i64:64-f80:128-n8:16:32:64-S128"
target triple = "x86_64-pc-linux-gnu"

%struct.stu = type { [20 x i8], [20 x i8], i8, i32, [20 x i8], [20 x i8], %struct.stu* }

@.str = private unnamed_addr constant [3 x i8] c"%s\00", align 1
@.str.1 = private unnamed_addr constant [15 x i8] c"%s %c %d %s %s\00", align 1
@.str.2 = private unnamed_addr constant [19 x i8] c"%s %s %c %d %s %s\0A\00", align 1

; Function Attrs: noinline nounwind uwtable
define dso_local i32 @main() #0 {
  %1 = alloca i32, align 4
  %2 = alloca %struct.stu*, align 8
  %3 = alloca %struct.stu*, align 8
  %4 = alloca %struct.stu*, align 8
  store i32 0, i32* %1, align 4
  %5 = call noalias i8* @malloc(i64 96) #3
  %6 = bitcast i8* %5 to %struct.stu*
  store %struct.stu* %6, %struct.stu** %2, align 8
  %7 = load %struct.stu*, %struct.stu** %2, align 8
  %8 = getelementptr inbounds %struct.stu, %struct.stu* %7, i32 0, i32 6
  store %struct.stu* null, %struct.stu** %8, align 8
  %9 = load %struct.stu*, %struct.stu** %2, align 8
  store %struct.stu* %9, %struct.stu** %3, align 8
  %10 = call noalias i8* @malloc(i64 96) #3
  %11 = bitcast i8* %10 to %struct.stu*
  store %struct.stu* %11, %struct.stu** %2, align 8
  br label %12

12:                                               ; preds = %0, %28
  %13 = load %struct.stu*, %struct.stu** %2, align 8
  %14 = getelementptr inbounds %struct.stu, %struct.stu* %13, i32 0, i32 0
  %15 = getelementptr inbounds [20 x i8], [20 x i8]* %14, i64 0, i64 0
  %16 = call i32 (i8*, ...) @__isoc99_scanf(i8* getelementptr inbounds ([3 x i8], [3 x i8]* @.str, i64 0, i64 0), i8* %15)
  %17 = load %struct.stu*, %struct.stu** %2, align 8
  %18 = getelementptr inbounds %struct.stu, %struct.stu* %17, i32 0, i32 0
  %19 = getelementptr inbounds [20 x i8], [20 x i8]* %18, i64 0, i64 0
  %20 = load i8, i8* %19, align 8
  %21 = sext i8 %20 to i32
  %22 = icmp eq i32 %21, 101
  br i1 %22, label %23, label %28

23:                                               ; preds = %12
  %24 = load %struct.stu*, %struct.stu** %3, align 8
  store %struct.stu* %24, %struct.stu** %4, align 8
  %25 = load %struct.stu*, %struct.stu** %3, align 8
  %26 = load %struct.stu*, %struct.stu** %2, align 8
  %27 = getelementptr inbounds %struct.stu, %struct.stu* %26, i32 0, i32 6
  store %struct.stu* %25, %struct.stu** %27, align 8
  br label %49

28:                                               ; preds = %12
  %29 = load %struct.stu*, %struct.stu** %2, align 8
  %30 = getelementptr inbounds %struct.stu, %struct.stu* %29, i32 0, i32 1
  %31 = getelementptr inbounds [20 x i8], [20 x i8]* %30, i64 0, i64 0
  %32 = load %struct.stu*, %struct.stu** %2, align 8
  %33 = getelementptr inbounds %struct.stu, %struct.stu* %32, i32 0, i32 2
  %34 = load %struct.stu*, %struct.stu** %2, align 8
  %35 = getelementptr inbounds %struct.stu, %struct.stu* %34, i32 0, i32 3
  %36 = load %struct.stu*, %struct.stu** %2, align 8
  %37 = getelementptr inbounds %struct.stu, %struct.stu* %36, i32 0, i32 4
  %38 = getelementptr inbounds [20 x i8], [20 x i8]* %37, i64 0, i64 0
  %39 = load %struct.stu*, %struct.stu** %2, align 8
  %40 = getelementptr inbounds %struct.stu, %struct.stu* %39, i32 0, i32 5
  %41 = getelementptr inbounds [20 x i8], [20 x i8]* %40, i64 0, i64 0
  %42 = call i32 (i8*, ...) @__isoc99_scanf(i8* getelementptr inbounds ([15 x i8], [15 x i8]* @.str.1, i64 0, i64 0), i8* %31, i8* %33, i32* %35, i8* %38, i8* %41)
  %43 = load %struct.stu*, %struct.stu** %3, align 8
  %44 = load %struct.stu*, %struct.stu** %2, align 8
  %45 = getelementptr inbounds %struct.stu, %struct.stu* %44, i32 0, i32 6
  store %struct.stu* %43, %struct.stu** %45, align 8
  %46 = load %struct.stu*, %struct.stu** %2, align 8
  store %struct.stu* %46, %struct.stu** %3, align 8
  %47 = call noalias i8* @malloc(i64 96) #3
  %48 = bitcast i8* %47 to %struct.stu*
  store %struct.stu* %48, %struct.stu** %2, align 8
  br label %12

49:                                               ; preds = %23
  %50 = load %struct.stu*, %struct.stu** %4, align 8
  store %struct.stu* %50, %struct.stu** %2, align 8
  br label %51

51:                                               ; preds = %56, %49
  %52 = load %struct.stu*, %struct.stu** %2, align 8
  %53 = getelementptr inbounds %struct.stu, %struct.stu* %52, i32 0, i32 6
  %54 = load %struct.stu*, %struct.stu** %53, align 8
  %55 = icmp ne %struct.stu* %54, null
  br i1 %55, label %56, label %80

56:                                               ; preds = %51
  %57 = load %struct.stu*, %struct.stu** %2, align 8
  %58 = getelementptr inbounds %struct.stu, %struct.stu* %57, i32 0, i32 0
  %59 = getelementptr inbounds [20 x i8], [20 x i8]* %58, i64 0, i64 0
  %60 = load %struct.stu*, %struct.stu** %2, align 8
  %61 = getelementptr inbounds %struct.stu, %struct.stu* %60, i32 0, i32 1
  %62 = getelementptr inbounds [20 x i8], [20 x i8]* %61, i64 0, i64 0
  %63 = load %struct.stu*, %struct.stu** %2, align 8
  %64 = getelementptr inbounds %struct.stu, %struct.stu* %63, i32 0, i32 2
  %65 = load i8, i8* %64, align 8
  %66 = sext i8 %65 to i32
  %67 = load %struct.stu*, %struct.stu** %2, align 8
  %68 = getelementptr inbounds %struct.stu, %struct.stu* %67, i32 0, i32 3
  %69 = load i32, i32* %68, align 4
  %70 = load %struct.stu*, %struct.stu** %2, align 8
  %71 = getelementptr inbounds %struct.stu, %struct.stu* %70, i32 0, i32 4
  %72 = getelementptr inbounds [20 x i8], [20 x i8]* %71, i64 0, i64 0
  %73 = load %struct.stu*, %struct.stu** %2, align 8
  %74 = getelementptr inbounds %struct.stu, %struct.stu* %73, i32 0, i32 5
  %75 = getelementptr inbounds [20 x i8], [20 x i8]* %74, i64 0, i64 0
  %76 = call i32 (i8*, ...) @printf(i8* getelementptr inbounds ([19 x i8], [19 x i8]* @.str.2, i64 0, i64 0), i8* %59, i8* %62, i32 %66, i32 %69, i8* %72, i8* %75)
  %77 = load %struct.stu*, %struct.stu** %2, align 8
  %78 = getelementptr inbounds %struct.stu, %struct.stu* %77, i32 0, i32 6
  %79 = load %struct.stu*, %struct.stu** %78, align 8
  store %struct.stu* %79, %struct.stu** %2, align 8
  br label %51

80:                                               ; preds = %51
  ret i32 0
}

; Function Attrs: nounwind
declare dso_local noalias i8* @malloc(i64) #1

declare dso_local i32 @__isoc99_scanf(i8*, ...) #2

declare dso_local i32 @printf(i8*, ...) #2


!llvm.module.flags = !{!0}
!llvm.ident = !{!1}

!0 = !{i32 1, !"wchar_size", i32 4}
!1 = !{!"clang version 10.0.0-4ubuntu1 "}
